	.file	"assignment_nov_14.c"
	.text
.Ltext0:
	.file 0 "/home/engineer/c/C_assignments" "assignment_nov_14.c"
	.globl	len
	.bss
	.align 4
	.type	len, @object
	.size	len, 4
len:
	.zero	4
	.section	.rodata
	.align 8
.LC0:
	.string	"Menu\n 0.exit\n 1.remove_spaces\n 2.rotate_elements_array.c"
.LC1:
	.string	"Select the option"
.LC2:
	.string	"%d"
.LC3:
	.string	"Enter the strings"
.LC4:
	.string	"%[^\n]s"
.LC5:
	.string	"Enter the number of values:"
.LC6:
	.string	"Enter value:"
	.align 8
.LC7:
	.string	"Enter the number for how many times rotating"
.LC8:
	.string	"After rotating"
.LC9:
	.string	"%d\n"
	.text
	.globl	main
	.type	main, @function
main:
.LFB6:
	.file 1 "assignment_nov_14.c"
	.loc 1 8 1
	.cfi_startproc
	endbr64
	pushq	%rbp
	.cfi_def_cfa_offset 16
	.cfi_offset 6, -16
	movq	%rsp, %rbp
	.cfi_def_cfa_register 6
	pushq	%r15
	pushq	%r14
	pushq	%r13
	pushq	%r12
	pushq	%rbx
	subq	$168, %rsp
	.cfi_offset 15, -24
	.cfi_offset 14, -32
	.cfi_offset 13, -40
	.cfi_offset 12, -48
	.cfi_offset 3, -56
	.loc 1 8 1
	movq	%fs:40, %rax
	movq	%rax, -56(%rbp)
	xorl	%eax, %eax
.L14:
.LBB2:
	.loc 1 12 2
	leaq	.LC0(%rip), %rax
	movq	%rax, %rdi
	call	puts@PLT
	.loc 1 13 2
	movq	stdin(%rip), %rax
	movq	%rax, %rdi
	movl	$0, %eax
	call	__fpurge@PLT
	.loc 1 14 2
	leaq	.LC1(%rip), %rax
	movq	%rax, %rdi
	call	puts@PLT
	.loc 1 16 3
	leaq	-200(%rbp), %rax
	movq	%rax, %rsi
	leaq	.LC2(%rip), %rax
	movq	%rax, %rdi
	movl	$0, %eax
	call	__isoc99_scanf@PLT
	.loc 1 17 3
	movl	-200(%rbp), %eax
	cmpl	$2, %eax
	je	.L2
	cmpl	$2, %eax
	jg	.L14
	testl	%eax, %eax
	je	.L4
	cmpl	$1, %eax
	je	.L5
	jmp	.L3
.L4:
.LBB3:
	.loc 1 19 10
	movl	$0, %edi
	call	exit@PLT
.L5:
	.loc 1 23 4
	leaq	.LC3(%rip), %rax
	movq	%rax, %rdi
	call	puts@PLT
	.loc 1 24 4
	movq	stdin(%rip), %rax
	movq	%rax, %rdi
	movl	$0, %eax
	call	__fpurge@PLT
	.loc 1 25 4
	leaq	-160(%rbp), %rax
	movq	%rax, %rsi
	leaq	.LC4(%rip), %rax
	movq	%rax, %rdi
	movl	$0, %eax
	call	__isoc99_scanf@PLT
	.loc 1 26 8
	leaq	-160(%rbp), %rax
	movq	%rax, %rdi
	call	strlen@PLT
	.loc 1 26 7
	movl	%eax, len(%rip)
	.loc 1 27 8
	leaq	-160(%rbp), %rax
	movq	%rax, %rdi
	call	remove_spaces
	movq	%rax, -168(%rbp)
	.loc 1 28 4
	movq	-168(%rbp), %rax
	movq	%rax, %rdi
	call	puts@PLT
	.loc 1 29 4
	jmp	.L3
.L2:
	.loc 1 32 4
	leaq	.LC5(%rip), %rax
	movq	%rax, %rdi
	call	puts@PLT
	.loc 1 33 4
	leaq	-196(%rbp), %rax
	movq	%rax, %rsi
	leaq	.LC2(%rip), %rax
	movq	%rax, %rdi
	movl	$0, %eax
	call	__isoc99_scanf@PLT
	.loc 1 34 4
	movq	stdin(%rip), %rax
	movq	%rax, %rdi
	movl	$0, %eax
	call	__fpurge@PLT
	.loc 1 35 4
	movl	-196(%rbp), %eax
	movq	%rsp, %rdx
	movq	%rdx, %rbx
	.loc 1 35 8
	movslq	%eax, %rdx
	subq	$1, %rdx
	movq	%rdx, -184(%rbp)
	movslq	%eax, %rdx
	movq	%rdx, %r12
	movl	$0, %r13d
	movslq	%eax, %rdx
	movq	%rdx, %r14
	movl	$0, %r15d
	cltq
	leaq	0(,%rax,4), %rdx
	movl	$16, %eax
	subq	$1, %rax
	addq	%rdx, %rax
	movl	$16, %ecx
	movl	$0, %edx
	divq	%rcx
	imulq	$16, %rax, %rax
	movq	%rax, %rcx
	andq	$-4096, %rcx
	movq	%rsp, %rdx
	subq	%rcx, %rdx
.L7:
	cmpq	%rdx, %rsp
	je	.L8
	subq	$4096, %rsp
	orq	$0, 4088(%rsp)
	jmp	.L7
.L8:
	movq	%rax, %rdx
	andl	$4095, %edx
	subq	%rdx, %rsp
	movq	%rax, %rdx
	andl	$4095, %edx
	testq	%rdx, %rdx
	je	.L9
	andl	$4095, %eax
	subq	$8, %rax
	addq	%rsp, %rax
	orq	$0, (%rax)
.L9:
	movq	%rsp, %rax
	addq	$3, %rax
	shrq	$2, %rax
	salq	$2, %rax
	movq	%rax, -176(%rbp)
	.loc 1 36 9
	movl	$0, -188(%rbp)
	.loc 1 36 4
	jmp	.L10
.L11:
	.loc 1 38 5 discriminator 3
	leaq	.LC6(%rip), %rax
	movq	%rax, %rdi
	call	puts@PLT
	.loc 1 39 5 discriminator 3
	movl	-188(%rbp), %eax
	cltq
	leaq	0(,%rax,4), %rdx
	movq	-176(%rbp), %rax
	addq	%rdx, %rax
	movq	%rax, %rsi
	leaq	.LC2(%rip), %rax
	movq	%rax, %rdi
	movl	$0, %eax
	call	__isoc99_scanf@PLT
	.loc 1 40 5 discriminator 3
	movq	stdin(%rip), %rax
	movq	%rax, %rdi
	movl	$0, %eax
	call	__fpurge@PLT
	.loc 1 36 17 discriminator 3
	addl	$1, -188(%rbp)
.L10:
	.loc 1 36 13 discriminator 1
	movl	-196(%rbp), %eax
	cmpl	%eax, -188(%rbp)
	jl	.L11
	.loc 1 42 4
	leaq	.LC7(%rip), %rax
	movq	%rax, %rdi
	call	puts@PLT
	.loc 1 43 4
	leaq	-192(%rbp), %rax
	movq	%rax, %rsi
	leaq	.LC2(%rip), %rax
	movq	%rax, %rdi
	movl	$0, %eax
	call	__isoc99_scanf@PLT
	.loc 1 44 4
	movq	stdin(%rip), %rax
	movq	%rax, %rdi
	movl	$0, %eax
	call	__fpurge@PLT
	.loc 1 45 4
	movl	-192(%rbp), %edx
	movl	-196(%rbp), %ecx
	movq	-176(%rbp), %rax
	movl	%ecx, %esi
	movq	%rax, %rdi
	call	rotate_elements
	.loc 1 46 4
	leaq	.LC8(%rip), %rax
	movq	%rax, %rdi
	call	puts@PLT
	.loc 1 47 9
	movl	$0, -188(%rbp)
	.loc 1 47 4
	jmp	.L12
.L13:
	.loc 1 49 5 discriminator 3
	movq	-176(%rbp), %rax
	movl	-188(%rbp), %edx
	movslq	%edx, %rdx
	movl	(%rax,%rdx,4), %eax
	movl	%eax, %esi
	leaq	.LC9(%rip), %rax
	movq	%rax, %rdi
	movl	$0, %eax
	call	printf@PLT
	.loc 1 47 17 discriminator 3
	addl	$1, -188(%rbp)
.L12:
	.loc 1 47 13 discriminator 1
	movl	-196(%rbp), %eax
	cmpl	%eax, -188(%rbp)
	jl	.L13
	.loc 1 51 4
	nop
	movq	%rbx, %rsp
.L3:
.LBE3:
.LBE2:
	.loc 1 11 2 discriminator 3
	jmp	.L14
	.cfi_endproc
.LFE6:
	.size	main, .-main
	.globl	remove_spaces
	.type	remove_spaces, @function
remove_spaces:
.LFB7:
	.loc 1 56 1
	.cfi_startproc
	endbr64
	pushq	%rbp
	.cfi_def_cfa_offset 16
	.cfi_offset 6, -16
	movq	%rsp, %rbp
	.cfi_def_cfa_register 6
	movq	%rdi, -24(%rbp)
	.loc 1 58 7
	movl	$0, -8(%rbp)
	.loc 1 58 2
	jmp	.L17
.L24:
	.loc 1 60 9
	movq	-24(%rbp), %rax
	movzbl	(%rax), %eax
	.loc 1 60 5
	cmpb	$32, %al
	jne	.L18
	.loc 1 62 9
	movl	$0, -8(%rbp)
	.loc 1 62 4
	jmp	.L19
.L20:
	.loc 1 64 15 discriminator 3
	movl	-8(%rbp), %eax
	cltq
	leaq	1(%rax), %rdx
	movq	-24(%rbp), %rax
	addq	%rdx, %rax
	.loc 1 64 8 discriminator 3
	movl	-8(%rbp), %edx
	movslq	%edx, %rcx
	movq	-24(%rbp), %rdx
	addq	%rcx, %rdx
	.loc 1 64 15 discriminator 3
	movzbl	(%rax), %eax
	.loc 1 64 11 discriminator 3
	movb	%al, (%rdx)
	.loc 1 62 23 discriminator 3
	addl	$1, -8(%rbp)
.L19:
	.loc 1 62 18 discriminator 1
	movl	len(%rip), %eax
	subl	$1, %eax
	.loc 1 62 13 discriminator 1
	cmpl	%eax, -8(%rbp)
	jl	.L20
	.loc 1 66 7
	movl	-8(%rbp), %eax
	movslq	%eax, %rdx
	movq	-24(%rbp), %rax
	addq	%rdx, %rax
	.loc 1 66 10
	movb	$0, (%rax)
	.loc 1 67 7
	movl	len(%rip), %eax
	subl	$1, %eax
	movl	%eax, len(%rip)
	.loc 1 68 5
	movl	$-1, -8(%rbp)
	.loc 1 69 4
	jmp	.L21
.L18:
	.loc 1 71 10
	movl	-8(%rbp), %eax
	movslq	%eax, %rdx
	movq	-24(%rbp), %rax
	addq	%rdx, %rax
	movzbl	(%rax), %eax
	.loc 1 71 5
	cmpb	$32, %al
	jne	.L21
	.loc 1 71 25 discriminator 1
	movl	-8(%rbp), %eax
	cltq
	leaq	1(%rax), %rdx
	movq	-24(%rbp), %rax
	addq	%rdx, %rax
	movzbl	(%rax), %eax
	.loc 1 71 19 discriminator 1
	cmpb	$32, %al
	jne	.L21
	.loc 1 73 9
	movl	-8(%rbp), %eax
	movl	%eax, -4(%rbp)
	.loc 1 73 4
	jmp	.L22
.L23:
	.loc 1 75 15 discriminator 3
	movl	-4(%rbp), %eax
	cltq
	leaq	1(%rax), %rdx
	movq	-24(%rbp), %rax
	addq	%rdx, %rax
	.loc 1 75 8 discriminator 3
	movl	-4(%rbp), %edx
	movslq	%edx, %rcx
	movq	-24(%rbp), %rdx
	addq	%rcx, %rdx
	.loc 1 75 15 discriminator 3
	movzbl	(%rax), %eax
	.loc 1 75 11 discriminator 3
	movb	%al, (%rdx)
	.loc 1 73 23 discriminator 3
	addl	$1, -4(%rbp)
.L22:
	.loc 1 73 18 discriminator 1
	movl	len(%rip), %eax
	subl	$1, %eax
	.loc 1 73 13 discriminator 1
	cmpl	%eax, -4(%rbp)
	jl	.L23
	.loc 1 77 7
	movl	-4(%rbp), %eax
	movslq	%eax, %rdx
	movq	-24(%rbp), %rax
	addq	%rdx, %rax
	.loc 1 77 10
	movb	$0, (%rax)
	.loc 1 78 7
	movl	len(%rip), %eax
	subl	$1, %eax
	movl	%eax, len(%rip)
	.loc 1 79 5
	subl	$1, -8(%rbp)
	.loc 1 80 4
	nop
.L21:
	.loc 1 58 17 discriminator 2
	addl	$1, -8(%rbp)
.L17:
	.loc 1 58 11 discriminator 1
	movl	len(%rip), %eax
	cmpl	%eax, -8(%rbp)
	jl	.L24
	.loc 1 83 9
	movq	-24(%rbp), %rax
	.loc 1 84 1
	popq	%rbp
	.cfi_def_cfa 7, 8
	ret
	.cfi_endproc
.LFE7:
	.size	remove_spaces, .-remove_spaces
	.globl	rotate_elements
	.type	rotate_elements, @function
rotate_elements:
.LFB8:
	.loc 1 86 1
	.cfi_startproc
	endbr64
	pushq	%rbp
	.cfi_def_cfa_offset 16
	.cfi_offset 6, -16
	movq	%rsp, %rbp
	.cfi_def_cfa_register 6
	movq	%rdi, -24(%rbp)
	movl	%esi, -28(%rbp)
	movl	%edx, -32(%rbp)
	.loc 1 88 7
	movl	$0, -8(%rbp)
	.loc 1 88 2
	jmp	.L27
.L30:
	.loc 1 90 7
	movq	-24(%rbp), %rax
	movl	(%rax), %eax
	movl	%eax, -4(%rbp)
	.loc 1 91 8
	movl	$0, -12(%rbp)
	.loc 1 91 3
	jmp	.L28
.L29:
	.loc 1 93 10 discriminator 3
	movl	-12(%rbp), %eax
	cltq
	addq	$1, %rax
	leaq	0(,%rax,4), %rdx
	movq	-24(%rbp), %rax
	addq	%rdx, %rax
	.loc 1 93 5 discriminator 3
	movl	-12(%rbp), %edx
	movslq	%edx, %rdx
	leaq	0(,%rdx,4), %rcx
	movq	-24(%rbp), %rdx
	addq	%rcx, %rdx
	.loc 1 93 10 discriminator 3
	movl	(%rax), %eax
	.loc 1 93 8 discriminator 3
	movl	%eax, (%rdx)
	.loc 1 91 18 discriminator 3
	addl	$1, -12(%rbp)
.L28:
	.loc 1 91 14 discriminator 1
	movl	-28(%rbp), %eax
	subl	$1, %eax
	.loc 1 91 12 discriminator 1
	cmpl	%eax, -12(%rbp)
	jl	.L29
	.loc 1 95 4 discriminator 2
	movl	-12(%rbp), %eax
	cltq
	leaq	0(,%rax,4), %rdx
	movq	-24(%rbp), %rax
	addq	%rax, %rdx
	.loc 1 95 7 discriminator 2
	movl	-4(%rbp), %eax
	movl	%eax, (%rdx)
	.loc 1 88 15 discriminator 2
	addl	$1, -8(%rbp)
.L27:
	.loc 1 88 11 discriminator 1
	movl	-8(%rbp), %eax
	cmpl	-32(%rbp), %eax
	jl	.L30
	.loc 1 98 1
	nop
	nop
	popq	%rbp
	.cfi_def_cfa 7, 8
	ret
	.cfi_endproc
.LFE8:
	.size	rotate_elements, .-rotate_elements
.Letext0:
	.file 2 "/usr/lib/gcc/x86_64-linux-gnu/11/include/stddef.h"
	.file 3 "/usr/include/x86_64-linux-gnu/bits/types.h"
	.file 4 "/usr/include/x86_64-linux-gnu/bits/types/struct_FILE.h"
	.file 5 "/usr/include/x86_64-linux-gnu/bits/types/FILE.h"
	.file 6 "/usr/include/stdio.h"
	.file 7 "/usr/include/string.h"
	.file 8 "/usr/include/stdlib.h"
	.section	.note.GNU-stack,"",@progbits
	.section	.note.gnu.property,"a"
	.align 8
	.long	1f - 0f
	.long	4f - 1f
	.long	5
0:
	.string	"GNU"
1:
	.align 8
	.long	0xc0000002
	.long	3f - 2f
2:
	.long	0x3
3:
	.align 8
4:
